
a.out:     file format elf64-x86-64


Disassembly of section .init:

0000000000001000 <_init>:
    1000:	f3 0f 1e fa          	endbr64 
    1004:	48 83 ec 08          	sub    $0x8,%rsp
    1008:	48 8b 05 d9 2f 00 00 	mov    0x2fd9(%rip),%rax        # 3fe8 <__gmon_start__>
    100f:	48 85 c0             	test   %rax,%rax
    1012:	74 02                	je     1016 <_init+0x16>
    1014:	ff d0                	callq  *%rax
    1016:	48 83 c4 08          	add    $0x8,%rsp
    101a:	c3                   	retq   

Disassembly of section .plt:

0000000000001020 <.plt>:
    1020:	ff 35 72 2f 00 00    	pushq  0x2f72(%rip)        # 3f98 <_GLOBAL_OFFSET_TABLE_+0x8>
    1026:	f2 ff 25 73 2f 00 00 	bnd jmpq *0x2f73(%rip)        # 3fa0 <_GLOBAL_OFFSET_TABLE_+0x10>
    102d:	0f 1f 00             	nopl   (%rax)
    1030:	f3 0f 1e fa          	endbr64 
    1034:	68 00 00 00 00       	pushq  $0x0
    1039:	f2 e9 e1 ff ff ff    	bnd jmpq 1020 <.plt>
    103f:	90                   	nop
    1040:	f3 0f 1e fa          	endbr64 
    1044:	68 01 00 00 00       	pushq  $0x1
    1049:	f2 e9 d1 ff ff ff    	bnd jmpq 1020 <.plt>
    104f:	90                   	nop
    1050:	f3 0f 1e fa          	endbr64 
    1054:	68 02 00 00 00       	pushq  $0x2
    1059:	f2 e9 c1 ff ff ff    	bnd jmpq 1020 <.plt>
    105f:	90                   	nop
    1060:	f3 0f 1e fa          	endbr64 
    1064:	68 03 00 00 00       	pushq  $0x3
    1069:	f2 e9 b1 ff ff ff    	bnd jmpq 1020 <.plt>
    106f:	90                   	nop
    1070:	f3 0f 1e fa          	endbr64 
    1074:	68 04 00 00 00       	pushq  $0x4
    1079:	f2 e9 a1 ff ff ff    	bnd jmpq 1020 <.plt>
    107f:	90                   	nop
    1080:	f3 0f 1e fa          	endbr64 
    1084:	68 05 00 00 00       	pushq  $0x5
    1089:	f2 e9 91 ff ff ff    	bnd jmpq 1020 <.plt>
    108f:	90                   	nop

Disassembly of section .plt.got:

0000000000001090 <__cxa_finalize@plt>:
    1090:	f3 0f 1e fa          	endbr64 
    1094:	f2 ff 25 5d 2f 00 00 	bnd jmpq *0x2f5d(%rip)        # 3ff8 <__cxa_finalize@GLIBC_2.2.5>
    109b:	0f 1f 44 00 00       	nopl   0x0(%rax,%rax,1)

Disassembly of section .plt.sec:

00000000000010a0 <fclose@plt>:
    10a0:	f3 0f 1e fa          	endbr64 
    10a4:	f2 ff 25 fd 2e 00 00 	bnd jmpq *0x2efd(%rip)        # 3fa8 <fclose@GLIBC_2.2.5>
    10ab:	0f 1f 44 00 00       	nopl   0x0(%rax,%rax,1)

00000000000010b0 <__stack_chk_fail@plt>:
    10b0:	f3 0f 1e fa          	endbr64 
    10b4:	f2 ff 25 f5 2e 00 00 	bnd jmpq *0x2ef5(%rip)        # 3fb0 <__stack_chk_fail@GLIBC_2.4>
    10bb:	0f 1f 44 00 00       	nopl   0x0(%rax,%rax,1)

00000000000010c0 <srand@plt>:
    10c0:	f3 0f 1e fa          	endbr64 
    10c4:	f2 ff 25 ed 2e 00 00 	bnd jmpq *0x2eed(%rip)        # 3fb8 <srand@GLIBC_2.2.5>
    10cb:	0f 1f 44 00 00       	nopl   0x0(%rax,%rax,1)

00000000000010d0 <fprintf@plt>:
    10d0:	f3 0f 1e fa          	endbr64 
    10d4:	f2 ff 25 e5 2e 00 00 	bnd jmpq *0x2ee5(%rip)        # 3fc0 <fprintf@GLIBC_2.2.5>
    10db:	0f 1f 44 00 00       	nopl   0x0(%rax,%rax,1)

00000000000010e0 <fopen@plt>:
    10e0:	f3 0f 1e fa          	endbr64 
    10e4:	f2 ff 25 dd 2e 00 00 	bnd jmpq *0x2edd(%rip)        # 3fc8 <fopen@GLIBC_2.2.5>
    10eb:	0f 1f 44 00 00       	nopl   0x0(%rax,%rax,1)

00000000000010f0 <rand@plt>:
    10f0:	f3 0f 1e fa          	endbr64 
    10f4:	f2 ff 25 d5 2e 00 00 	bnd jmpq *0x2ed5(%rip)        # 3fd0 <rand@GLIBC_2.2.5>
    10fb:	0f 1f 44 00 00       	nopl   0x0(%rax,%rax,1)

Disassembly of section .text:

0000000000001100 <_start>:
    1100:	f3 0f 1e fa          	endbr64 
    1104:	31 ed                	xor    %ebp,%ebp
    1106:	49 89 d1             	mov    %rdx,%r9
    1109:	5e                   	pop    %rsi
    110a:	48 89 e2             	mov    %rsp,%rdx
    110d:	48 83 e4 f0          	and    $0xfffffffffffffff0,%rsp
    1111:	50                   	push   %rax
    1112:	54                   	push   %rsp
    1113:	4c 8d 05 26 05 00 00 	lea    0x526(%rip),%r8        # 1640 <__libc_csu_fini>
    111a:	48 8d 0d af 04 00 00 	lea    0x4af(%rip),%rcx        # 15d0 <__libc_csu_init>
    1121:	48 8d 3d eb 00 00 00 	lea    0xeb(%rip),%rdi        # 1213 <main>
    1128:	ff 15 b2 2e 00 00    	callq  *0x2eb2(%rip)        # 3fe0 <__libc_start_main@GLIBC_2.2.5>
    112e:	f4                   	hlt    
    112f:	90                   	nop

0000000000001130 <deregister_tm_clones>:
    1130:	48 8d 3d d9 2e 00 00 	lea    0x2ed9(%rip),%rdi        # 4010 <__TMC_END__>
    1137:	48 8d 05 d2 2e 00 00 	lea    0x2ed2(%rip),%rax        # 4010 <__TMC_END__>
    113e:	48 39 f8             	cmp    %rdi,%rax
    1141:	74 15                	je     1158 <deregister_tm_clones+0x28>
    1143:	48 8b 05 8e 2e 00 00 	mov    0x2e8e(%rip),%rax        # 3fd8 <_ITM_deregisterTMCloneTable>
    114a:	48 85 c0             	test   %rax,%rax
    114d:	74 09                	je     1158 <deregister_tm_clones+0x28>
    114f:	ff e0                	jmpq   *%rax
    1151:	0f 1f 80 00 00 00 00 	nopl   0x0(%rax)
    1158:	c3                   	retq   
    1159:	0f 1f 80 00 00 00 00 	nopl   0x0(%rax)

0000000000001160 <register_tm_clones>:
    1160:	48 8d 3d a9 2e 00 00 	lea    0x2ea9(%rip),%rdi        # 4010 <__TMC_END__>
    1167:	48 8d 35 a2 2e 00 00 	lea    0x2ea2(%rip),%rsi        # 4010 <__TMC_END__>
    116e:	48 29 fe             	sub    %rdi,%rsi
    1171:	48 89 f0             	mov    %rsi,%rax
    1174:	48 c1 ee 3f          	shr    $0x3f,%rsi
    1178:	48 c1 f8 03          	sar    $0x3,%rax
    117c:	48 01 c6             	add    %rax,%rsi
    117f:	48 d1 fe             	sar    %rsi
    1182:	74 14                	je     1198 <register_tm_clones+0x38>
    1184:	48 8b 05 65 2e 00 00 	mov    0x2e65(%rip),%rax        # 3ff0 <_ITM_registerTMCloneTable>
    118b:	48 85 c0             	test   %rax,%rax
    118e:	74 08                	je     1198 <register_tm_clones+0x38>
    1190:	ff e0                	jmpq   *%rax
    1192:	66 0f 1f 44 00 00    	nopw   0x0(%rax,%rax,1)
    1198:	c3                   	retq   
    1199:	0f 1f 80 00 00 00 00 	nopl   0x0(%rax)

00000000000011a0 <__do_global_dtors_aux>:
    11a0:	f3 0f 1e fa          	endbr64 
    11a4:	80 3d 65 2e 00 00 00 	cmpb   $0x0,0x2e65(%rip)        # 4010 <__TMC_END__>
    11ab:	75 2b                	jne    11d8 <__do_global_dtors_aux+0x38>
    11ad:	55                   	push   %rbp
    11ae:	48 83 3d 42 2e 00 00 	cmpq   $0x0,0x2e42(%rip)        # 3ff8 <__cxa_finalize@GLIBC_2.2.5>
    11b5:	00 
    11b6:	48 89 e5             	mov    %rsp,%rbp
    11b9:	74 0c                	je     11c7 <__do_global_dtors_aux+0x27>
    11bb:	48 8b 3d 46 2e 00 00 	mov    0x2e46(%rip),%rdi        # 4008 <__dso_handle>
    11c2:	e8 c9 fe ff ff       	callq  1090 <__cxa_finalize@plt>
    11c7:	e8 64 ff ff ff       	callq  1130 <deregister_tm_clones>
    11cc:	c6 05 3d 2e 00 00 01 	movb   $0x1,0x2e3d(%rip)        # 4010 <__TMC_END__>
    11d3:	5d                   	pop    %rbp
    11d4:	c3                   	retq   
    11d5:	0f 1f 00             	nopl   (%rax)
    11d8:	c3                   	retq   
    11d9:	0f 1f 80 00 00 00 00 	nopl   0x0(%rax)

00000000000011e0 <frame_dummy>:
    11e0:	f3 0f 1e fa          	endbr64 
    11e4:	e9 77 ff ff ff       	jmpq   1160 <register_tm_clones>

00000000000011e9 <rrandom>:
    11e9:	f3 0f 1e fa          	endbr64 
    11ed:	55                   	push   %rbp
    11ee:	48 89 e5             	mov    %rsp,%rbp
    11f1:	48 83 ec 10          	sub    $0x10,%rsp
    11f5:	89 7d fc             	mov    %edi,-0x4(%rbp)
    11f8:	89 75 f8             	mov    %esi,-0x8(%rbp)
    11fb:	e8 f0 fe ff ff       	callq  10f0 <rand@plt>
    1200:	8b 55 f8             	mov    -0x8(%rbp),%edx
    1203:	2b 55 fc             	sub    -0x4(%rbp),%edx
    1206:	8d 4a 01             	lea    0x1(%rdx),%ecx
    1209:	99                   	cltd   
    120a:	f7 f9                	idiv   %ecx
    120c:	8b 45 fc             	mov    -0x4(%rbp),%eax
    120f:	01 d0                	add    %edx,%eax
    1211:	c9                   	leaveq 
    1212:	c3                   	retq   

0000000000001213 <main>:
    1213:	f3 0f 1e fa          	endbr64 
    1217:	55                   	push   %rbp
    1218:	48 89 e5             	mov    %rsp,%rbp
    121b:	48 81 ec 00 10 00 00 	sub    $0x1000,%rsp
    1222:	48 83 0c 24 00       	orq    $0x0,(%rsp)
    1227:	48 83 ec 40          	sub    $0x40,%rsp
    122b:	64 48 8b 04 25 28 00 	mov    %fs:0x28,%rax
    1232:	00 00 
    1234:	48 89 45 f8          	mov    %rax,-0x8(%rbp)
    1238:	31 c0                	xor    %eax,%eax
    123a:	bf 11 00 00 00       	mov    $0x11,%edi
    123f:	e8 7c fe ff ff       	callq  10c0 <srand@plt>
    1244:	c7 85 cc ef ff ff 00 	movl   $0x0,-0x1034(%rbp)
    124b:	00 00 00 
    124e:	e9 c4 00 00 00       	jmpq   1317 <main+0x104>
    1253:	81 bd cc ef ff ff ff 	cmpl   $0x1ff,-0x1034(%rbp)
    125a:	01 00 00 
    125d:	7f 26                	jg     1285 <main+0x72>
    125f:	be 40 00 00 00       	mov    $0x40,%esi
    1264:	bf 01 00 00 00       	mov    $0x1,%edi
    1269:	e8 7b ff ff ff       	callq  11e9 <rrandom>
    126e:	89 c2                	mov    %eax,%edx
    1270:	8b 85 cc ef ff ff    	mov    -0x1034(%rbp),%eax
    1276:	48 98                	cltq   
    1278:	66 89 94 45 f0 ef ff 	mov    %dx,-0x1010(%rbp,%rax,2)
    127f:	ff 
    1280:	e9 8b 00 00 00       	jmpq   1310 <main+0xfd>
    1285:	81 bd cc ef ff ff ff 	cmpl   $0x3ff,-0x1034(%rbp)
    128c:	03 00 00 
    128f:	7f 23                	jg     12b4 <main+0xa1>
    1291:	be 00 01 00 00       	mov    $0x100,%esi
    1296:	bf 01 00 00 00       	mov    $0x1,%edi
    129b:	e8 49 ff ff ff       	callq  11e9 <rrandom>
    12a0:	89 c2                	mov    %eax,%edx
    12a2:	8b 85 cc ef ff ff    	mov    -0x1034(%rbp),%eax
    12a8:	48 98                	cltq   
    12aa:	66 89 94 45 f0 ef ff 	mov    %dx,-0x1010(%rbp,%rax,2)
    12b1:	ff 
    12b2:	eb 5c                	jmp    1310 <main+0xfd>
    12b4:	81 bd cc ef ff ff ff 	cmpl   $0x5ff,-0x1034(%rbp)
    12bb:	05 00 00 
    12be:	7f 23                	jg     12e3 <main+0xd0>
    12c0:	be ff ff ff ff       	mov    $0xffffffff,%esi
    12c5:	bf c0 ff ff ff       	mov    $0xffffffc0,%edi
    12ca:	e8 1a ff ff ff       	callq  11e9 <rrandom>
    12cf:	89 c2                	mov    %eax,%edx
    12d1:	8b 85 cc ef ff ff    	mov    -0x1034(%rbp),%eax
    12d7:	48 98                	cltq   
    12d9:	66 89 94 45 f0 ef ff 	mov    %dx,-0x1010(%rbp,%rax,2)
    12e0:	ff 
    12e1:	eb 2d                	jmp    1310 <main+0xfd>
    12e3:	81 bd cc ef ff ff fe 	cmpl   $0x7fe,-0x1034(%rbp)
    12ea:	07 00 00 
    12ed:	7f 21                	jg     1310 <main+0xfd>
    12ef:	be ff ff ff ff       	mov    $0xffffffff,%esi
    12f4:	bf c0 ff ff ff       	mov    $0xffffffc0,%edi
    12f9:	e8 eb fe ff ff       	callq  11e9 <rrandom>
    12fe:	89 c2                	mov    %eax,%edx
    1300:	8b 85 cc ef ff ff    	mov    -0x1034(%rbp),%eax
    1306:	48 98                	cltq   
    1308:	66 89 94 45 f0 ef ff 	mov    %dx,-0x1010(%rbp,%rax,2)
    130f:	ff 
    1310:	83 85 cc ef ff ff 01 	addl   $0x1,-0x1034(%rbp)
    1317:	81 bd cc ef ff ff ff 	cmpl   $0x7ff,-0x1034(%rbp)
    131e:	07 00 00 
    1321:	0f 8e 2c ff ff ff    	jle    1253 <main+0x40>
    1327:	66 c7 85 f0 ef ff ff 	movw   $0x1,-0x1010(%rbp)
    132e:	01 00 
    1330:	66 c7 85 f2 ef ff ff 	movw   $0x3,-0x100e(%rbp)
    1337:	03 00 
    1339:	66 c7 85 f4 ef ff ff 	movw   $0x5,-0x100c(%rbp)
    1340:	05 00 
    1342:	66 c7 85 f6 ef ff ff 	movw   $0x8,-0x100a(%rbp)
    1349:	08 00 
    134b:	66 c7 85 f8 ef ff ff 	movw   $0xb,-0x1008(%rbp)
    1352:	0b 00 
    1354:	66 c7 85 fa ef ff ff 	movw   $0x10,-0x1006(%rbp)
    135b:	10 00 
    135d:	66 c7 85 fc ef ff ff 	movw   $0x4,-0x1004(%rbp)
    1364:	04 00 
    1366:	66 c7 85 fe ef ff ff 	movw   $0x13,-0x1002(%rbp)
    136d:	13 00 
    136f:	66 c7 85 00 f0 ff ff 	movw   $0xa,-0x1000(%rbp)
    1376:	0a 00 
    1378:	66 c7 85 02 f0 ff ff 	movw   $0x64,-0xffe(%rbp)
    137f:	64 00 
    1381:	66 c7 85 e2 f7 ff ff 	movw   $0xf5,-0x81e(%rbp)
    1388:	f5 00 
    138a:	66 c7 85 e4 f7 ff ff 	movw   $0xfe,-0x81c(%rbp)
    1391:	fe 00 
    1393:	66 c7 85 e6 f7 ff ff 	movw   $0xff,-0x81a(%rbp)
    139a:	ff 00 
    139c:	66 c7 85 e8 f7 ff ff 	movw   $0x7d00,-0x818(%rbp)
    13a3:	00 7d 
    13a5:	66 c7 85 ea f7 ff ff 	movw   $0x7ffd,-0x816(%rbp)
    13ac:	fd 7f 
    13ae:	66 c7 85 ec f7 ff ff 	movw   $0x7fff,-0x814(%rbp)
    13b5:	ff 7f 
    13b7:	66 c7 85 ee f7 ff ff 	movw   $0x0,-0x812(%rbp)
    13be:	00 00 
    13c0:	66 c7 85 f0 f7 ff ff 	movw   $0xffff,-0x810(%rbp)
    13c7:	ff ff 
    13c9:	66 c7 85 f2 f7 ff ff 	movw   $0xfffd,-0x80e(%rbp)
    13d0:	fd ff 
    13d2:	66 c7 85 f4 f7 ff ff 	movw   $0xfffb,-0x80c(%rbp)
    13d9:	fb ff 
    13db:	66 c7 85 f6 f7 ff ff 	movw   $0xfff8,-0x80a(%rbp)
    13e2:	f8 ff 
    13e4:	66 c7 85 f8 f7 ff ff 	movw   $0xfff5,-0x808(%rbp)
    13eb:	f5 ff 
    13ed:	66 c7 85 fa f7 ff ff 	movw   $0xfff0,-0x806(%rbp)
    13f4:	f0 ff 
    13f6:	66 c7 85 fc f7 ff ff 	movw   $0xfffc,-0x804(%rbp)
    13fd:	fc ff 
    13ff:	66 c7 85 fe f7 ff ff 	movw   $0xffe5,-0x802(%rbp)
    1406:	e5 ff 
    1408:	66 c7 85 00 f8 ff ff 	movw   $0xfff6,-0x800(%rbp)
    140f:	f6 ff 
    1411:	66 c7 85 02 f8 ff ff 	movw   $0xff9c,-0x7fe(%rbp)
    1418:	9c ff 
    141a:	66 c7 45 e4 0b ff    	movw   $0xff0b,-0x1c(%rbp)
    1420:	66 c7 45 e6 01 ff    	movw   $0xff01,-0x1a(%rbp)
    1426:	66 c7 45 e8 00 ff    	movw   $0xff00,-0x18(%rbp)
    142c:	66 c7 45 ea 12 80    	movw   $0x8012,-0x16(%rbp)
    1432:	66 c7 45 ec 01 80    	movw   $0x8001,-0x14(%rbp)
    1438:	66 c7 45 ee 00 80    	movw   $0x8000,-0x12(%rbp)
    143e:	48 8d 35 bf 0b 00 00 	lea    0xbbf(%rip),%rsi        # 2004 <_IO_stdin_used+0x4>
    1445:	48 8d 3d ba 0b 00 00 	lea    0xbba(%rip),%rdi        # 2006 <_IO_stdin_used+0x6>
    144c:	e8 8f fc ff ff       	callq  10e0 <fopen@plt>
    1451:	48 89 85 d8 ef ff ff 	mov    %rax,-0x1028(%rbp)
    1458:	48 8d 35 a5 0b 00 00 	lea    0xba5(%rip),%rsi        # 2004 <_IO_stdin_used+0x4>
    145f:	48 8d 3d ae 0b 00 00 	lea    0xbae(%rip),%rdi        # 2014 <_IO_stdin_used+0x14>
    1466:	e8 75 fc ff ff       	callq  10e0 <fopen@plt>
    146b:	48 89 85 e0 ef ff ff 	mov    %rax,-0x1020(%rbp)
    1472:	c7 85 d0 ef ff ff 00 	movl   $0x1000,-0x1030(%rbp)
    1479:	10 00 00 
    147c:	c7 85 d4 ef ff ff 00 	movl   $0x0,-0x102c(%rbp)
    1483:	00 00 00 
    1486:	e9 f0 00 00 00       	jmpq   157b <main+0x368>
    148b:	48 8d 85 f0 ef ff ff 	lea    -0x1010(%rbp),%rax
    1492:	8b 95 d4 ef ff ff    	mov    -0x102c(%rbp),%edx
    1498:	48 63 d2             	movslq %edx,%rdx
    149b:	48 01 d2             	add    %rdx,%rdx
    149e:	48 01 d0             	add    %rdx,%rax
    14a1:	48 89 85 e8 ef ff ff 	mov    %rax,-0x1018(%rbp)
    14a8:	8b 95 d0 ef ff ff    	mov    -0x1030(%rbp),%edx
    14ae:	48 8b 85 d8 ef ff ff 	mov    -0x1028(%rbp),%rax
    14b5:	48 8d 35 63 0b 00 00 	lea    0xb63(%rip),%rsi        # 201f <_IO_stdin_used+0x1f>
    14bc:	48 89 c7             	mov    %rax,%rdi
    14bf:	b8 00 00 00 00       	mov    $0x0,%eax
    14c4:	e8 07 fc ff ff       	callq  10d0 <fprintf@plt>
    14c9:	48 8b 85 e8 ef ff ff 	mov    -0x1018(%rbp),%rax
    14d0:	48 83 c0 01          	add    $0x1,%rax
    14d4:	0f b6 00             	movzbl (%rax),%eax
    14d7:	0f b6 c8             	movzbl %al,%ecx
    14da:	48 8b 85 e8 ef ff ff 	mov    -0x1018(%rbp),%rax
    14e1:	0f b6 00             	movzbl (%rax),%eax
    14e4:	0f b6 d0             	movzbl %al,%edx
    14e7:	48 8b 85 d8 ef ff ff 	mov    -0x1028(%rbp),%rax
    14ee:	48 8d 35 2f 0b 00 00 	lea    0xb2f(%rip),%rsi        # 2024 <_IO_stdin_used+0x24>
    14f5:	48 89 c7             	mov    %rax,%rdi
    14f8:	b8 00 00 00 00       	mov    $0x0,%eax
    14fd:	e8 ce fb ff ff       	callq  10d0 <fprintf@plt>
    1502:	48 8b 85 e8 ef ff ff 	mov    -0x1018(%rbp),%rax
    1509:	0f b6 00             	movzbl (%rax),%eax
    150c:	0f b6 f0             	movzbl %al,%esi
    150f:	48 8b 85 e8 ef ff ff 	mov    -0x1018(%rbp),%rax
    1516:	48 83 c0 01          	add    $0x1,%rax
    151a:	0f b6 00             	movzbl (%rax),%eax
    151d:	44 0f b6 c0          	movzbl %al,%r8d
    1521:	8b 85 d4 ef ff ff    	mov    -0x102c(%rbp),%eax
    1527:	48 98                	cltq   
    1529:	0f b7 84 45 f0 ef ff 	movzwl -0x1010(%rbp,%rax,2),%eax
    1530:	ff 
    1531:	0f bf f8             	movswl %ax,%edi
    1534:	8b 85 d4 ef ff ff    	mov    -0x102c(%rbp),%eax
    153a:	8d 0c 00             	lea    (%rax,%rax,1),%ecx
    153d:	8b 95 d0 ef ff ff    	mov    -0x1030(%rbp),%edx
    1543:	48 8b 85 e0 ef ff ff 	mov    -0x1020(%rbp),%rax
    154a:	48 83 ec 08          	sub    $0x8,%rsp
    154e:	56                   	push   %rsi
    154f:	45 89 c1             	mov    %r8d,%r9d
    1552:	41 89 f8             	mov    %edi,%r8d
    1555:	48 8d 35 d3 0a 00 00 	lea    0xad3(%rip),%rsi        # 202f <_IO_stdin_used+0x2f>
    155c:	48 89 c7             	mov    %rax,%rdi
    155f:	b8 00 00 00 00       	mov    $0x0,%eax
    1564:	e8 67 fb ff ff       	callq  10d0 <fprintf@plt>
    1569:	48 83 c4 10          	add    $0x10,%rsp
    156d:	83 85 d0 ef ff ff 02 	addl   $0x2,-0x1030(%rbp)
    1574:	83 85 d4 ef ff ff 01 	addl   $0x1,-0x102c(%rbp)
    157b:	81 bd d0 ef ff ff ff 	cmpl   $0x1fff,-0x1030(%rbp)
    1582:	1f 00 00 
    1585:	0f 8e 00 ff ff ff    	jle    148b <main+0x278>
    158b:	48 8b 85 d8 ef ff ff 	mov    -0x1028(%rbp),%rax
    1592:	48 89 c7             	mov    %rax,%rdi
    1595:	e8 06 fb ff ff       	callq  10a0 <fclose@plt>
    159a:	48 8b 85 e0 ef ff ff 	mov    -0x1020(%rbp),%rax
    15a1:	48 89 c7             	mov    %rax,%rdi
    15a4:	e8 f7 fa ff ff       	callq  10a0 <fclose@plt>
    15a9:	b8 00 00 00 00       	mov    $0x0,%eax
    15ae:	48 8b 4d f8          	mov    -0x8(%rbp),%rcx
    15b2:	64 48 33 0c 25 28 00 	xor    %fs:0x28,%rcx
    15b9:	00 00 
    15bb:	74 05                	je     15c2 <main+0x3af>
    15bd:	e8 ee fa ff ff       	callq  10b0 <__stack_chk_fail@plt>
    15c2:	c9                   	leaveq 
    15c3:	c3                   	retq   
    15c4:	66 2e 0f 1f 84 00 00 	nopw   %cs:0x0(%rax,%rax,1)
    15cb:	00 00 00 
    15ce:	66 90                	xchg   %ax,%ax

00000000000015d0 <__libc_csu_init>:
    15d0:	f3 0f 1e fa          	endbr64 
    15d4:	41 57                	push   %r15
    15d6:	4c 8d 3d b3 27 00 00 	lea    0x27b3(%rip),%r15        # 3d90 <__frame_dummy_init_array_entry>
    15dd:	41 56                	push   %r14
    15df:	49 89 d6             	mov    %rdx,%r14
    15e2:	41 55                	push   %r13
    15e4:	49 89 f5             	mov    %rsi,%r13
    15e7:	41 54                	push   %r12
    15e9:	41 89 fc             	mov    %edi,%r12d
    15ec:	55                   	push   %rbp
    15ed:	48 8d 2d a4 27 00 00 	lea    0x27a4(%rip),%rbp        # 3d98 <__do_global_dtors_aux_fini_array_entry>
    15f4:	53                   	push   %rbx
    15f5:	4c 29 fd             	sub    %r15,%rbp
    15f8:	48 83 ec 08          	sub    $0x8,%rsp
    15fc:	e8 ff f9 ff ff       	callq  1000 <_init>
    1601:	48 c1 fd 03          	sar    $0x3,%rbp
    1605:	74 1f                	je     1626 <__libc_csu_init+0x56>
    1607:	31 db                	xor    %ebx,%ebx
    1609:	0f 1f 80 00 00 00 00 	nopl   0x0(%rax)
    1610:	4c 89 f2             	mov    %r14,%rdx
    1613:	4c 89 ee             	mov    %r13,%rsi
    1616:	44 89 e7             	mov    %r12d,%edi
    1619:	41 ff 14 df          	callq  *(%r15,%rbx,8)
    161d:	48 83 c3 01          	add    $0x1,%rbx
    1621:	48 39 dd             	cmp    %rbx,%rbp
    1624:	75 ea                	jne    1610 <__libc_csu_init+0x40>
    1626:	48 83 c4 08          	add    $0x8,%rsp
    162a:	5b                   	pop    %rbx
    162b:	5d                   	pop    %rbp
    162c:	41 5c                	pop    %r12
    162e:	41 5d                	pop    %r13
    1630:	41 5e                	pop    %r14
    1632:	41 5f                	pop    %r15
    1634:	c3                   	retq   
    1635:	66 66 2e 0f 1f 84 00 	data16 nopw %cs:0x0(%rax,%rax,1)
    163c:	00 00 00 00 

0000000000001640 <__libc_csu_fini>:
    1640:	f3 0f 1e fa          	endbr64 
    1644:	c3                   	retq   

Disassembly of section .fini:

0000000000001648 <_fini>:
    1648:	f3 0f 1e fa          	endbr64 
    164c:	48 83 ec 08          	sub    $0x8,%rsp
    1650:	48 83 c4 08          	add    $0x8,%rsp
    1654:	c3                   	retq   
